target datalayout = "e-m:e-p270:32:32-p271:32:32-p272:64:64-i64:64-i128:128-f80:128-n8:16:32:64-S128"
target triple = "x86_64-pc-linux-gnu"

%struct.X509_info_st = type { ptr, ptr, ptr, %struct.evp_cipher_info_st, i32, ptr }
%struct.evp_cipher_info_st = type { ptr, [16 x i8] }

@.str.20 = private unnamed_addr constant [44 x i8] c"../openssl/test/x509_check_cert_pkey_test.c\00", align 1
@file = internal global ptr null, align 8
@expected = internal global i32 0, align 4
@.str.33 = private unnamed_addr constant [31 x i8] c"(in = BIO_new_file(file, \22r\22))\00", align 1
@.str.34 = private unnamed_addr constant [2 x i8] c"r\00", align 1
@.str.35 = private unnamed_addr constant [1 x i8] zeroinitializer, align 1
@.str.36 = private unnamed_addr constant [6 x i8] c"count\00", align 1
@.str.37 = private unnamed_addr constant [9 x i8] c"expected\00", align 1

; Function Attrs: inlinehint nounwind uwtable
define internal ptr @ossl_check_X509_INFO_freefunc_type(ptr noundef %0) #4 {
  %2 = alloca ptr, align 8
  store ptr %0, ptr %2, align 8, !tbaa !33
  %3 = load ptr, ptr %2, align 8, !tbaa !33
  ret ptr %3
}

; Function Attrs: inlinehint nounwind uwtable
define internal ptr @ossl_check_X509_INFO_sk_type(ptr noundef %0) #4 {
  %2 = alloca ptr, align 8
  store ptr %0, ptr %2, align 8, !tbaa !13
  %3 = load ptr, ptr %2, align 8, !tbaa !13
  ret ptr %3
}

; Function Attrs: inlinehint nounwind uwtable
define internal ptr @ossl_check_const_X509_INFO_sk_type(ptr noundef %0) #4 {
  %2 = alloca ptr, align 8
  store ptr %0, ptr %2, align 8, !tbaa !13
  %3 = load ptr, ptr %2, align 8, !tbaa !13
  ret ptr %3
}

; Function Attrs: nounwind uwtable
define internal i32 @test_PEM_X509_INFO_read_bio() #0 {
  %1 = alloca i32, align 4
  %2 = alloca ptr, align 8
  %3 = alloca ptr, align 8
  %4 = alloca ptr, align 8
  %5 = alloca i32, align 4
  %6 = alloca i32, align 4
  %7 = alloca i32, align 4
  call void @llvm.lifetime.start.p0(i64 8, ptr %2) #6
  call void @llvm.lifetime.start.p0(i64 8, ptr %3) #6
  call void @llvm.lifetime.start.p0(i64 8, ptr %4) #6
  call void @llvm.lifetime.start.p0(i64 4, ptr %5) #6
  call void @llvm.lifetime.start.p0(i64 4, ptr %6) #6
  store i32 0, ptr %6, align 4, !tbaa !9
  %8 = load ptr, ptr @file, align 8, !tbaa !4
  %9 = call ptr @BIO_new_file(ptr noundef %8, ptr noundef @.str.34)
  store ptr %9, ptr %2, align 8, !tbaa !11
  %10 = call i32 @test_ptr(ptr noundef @.str.20, i32 noundef 119, ptr noundef @.str.33, ptr noundef %9)
  %11 = icmp ne i32 %10, 0
  br i1 %11, label %13, label %12

12:                                               ; preds = %0
  store i32 0, ptr %1, align 4
  store i32 1, ptr %7, align 4
  br label %63

13:                                               ; preds = %0
  %14 = load ptr, ptr %2, align 8, !tbaa !11
  %15 = call ptr @PEM_X509_INFO_read_bio(ptr noundef %14, ptr noundef null, ptr noundef null, ptr noundef @.str.35)
  store ptr %15, ptr %3, align 8, !tbaa !13
  %16 = load ptr, ptr %2, align 8, !tbaa !11
  %17 = call i32 @BIO_free(ptr noundef %16)
  store i32 0, ptr %5, align 4, !tbaa !9
  br label %18

18:                                               ; preds = %53, %13
  %19 = load i32, ptr %5, align 4, !tbaa !9
  %20 = load ptr, ptr %3, align 8, !tbaa !13
  %21 = call ptr @ossl_check_const_X509_INFO_sk_type(ptr noundef %20)
  %22 = call i32 @OPENSSL_sk_num(ptr noundef %21)
  %23 = icmp slt i32 %19, %22
  br i1 %23, label %24, label %56

24:                                               ; preds = %18
  %25 = load ptr, ptr %3, align 8, !tbaa !13
  %26 = call ptr @ossl_check_const_X509_INFO_sk_type(ptr noundef %25)
  %27 = load i32, ptr %5, align 4, !tbaa !9
  %28 = call ptr @OPENSSL_sk_value(ptr noundef %26, i32 noundef %27)
  store ptr %28, ptr %4, align 8, !tbaa !15
  %29 = load ptr, ptr %4, align 8, !tbaa !15
  %30 = getelementptr inbounds nuw %struct.X509_info_st, ptr %29, i32 0, i32 0
  %31 = load ptr, ptr %30, align 8, !tbaa !17
  %32 = icmp ne ptr %31, null
  br i1 %32, label %33, label %36

33:                                               ; preds = %24
  %34 = load i32, ptr %6, align 4, !tbaa !9
  %35 = add nsw i32 %34, 1
  store i32 %35, ptr %6, align 4, !tbaa !9
  br label %36

36:                                               ; preds = %33, %24
  %37 = load ptr, ptr %4, align 8, !tbaa !15
  %38 = getelementptr inbounds nuw %struct.X509_info_st, ptr %37, i32 0, i32 1
  %39 = load ptr, ptr %38, align 8, !tbaa !24
  %40 = icmp ne ptr %39, null
  br i1 %40, label %41, label %44

41:                                               ; preds = %36
  %42 = load i32, ptr %6, align 4, !tbaa !9
  %43 = add nsw i32 %42, 1
  store i32 %43, ptr %6, align 4, !tbaa !9
  br label %44

44:                                               ; preds = %41, %36
  %45 = load ptr, ptr %4, align 8, !tbaa !15
  %46 = getelementptr inbounds nuw %struct.X509_info_st, ptr %45, i32 0, i32 2
  %47 = load ptr, ptr %46, align 8, !tbaa !25
  %48 = icmp ne ptr %47, null
  br i1 %48, label %49, label %52

49:                                               ; preds = %44
  %50 = load i32, ptr %6, align 4, !tbaa !9
  %51 = add nsw i32 %50, 1
  store i32 %51, ptr %6, align 4, !tbaa !9
  br label %52

52:                                               ; preds = %49, %44
  br label %53

53:                                               ; preds = %52
  %54 = load i32, ptr %5, align 4, !tbaa !9
  %55 = add nsw i32 %54, 1
  store i32 %55, ptr %5, align 4, !tbaa !9
  br label %18, !llvm.loop !26

56:                                               ; preds = %18
  %57 = load ptr, ptr %3, align 8, !tbaa !13
  %58 = call ptr @ossl_check_X509_INFO_sk_type(ptr noundef %57)
  %59 = call ptr @ossl_check_X509_INFO_freefunc_type(ptr noundef @X509_INFO_free)
  call void @OPENSSL_sk_pop_free(ptr noundef %58, ptr noundef %59)
  %60 = load i32, ptr %6, align 4, !tbaa !9
  %61 = load i32, ptr @expected, align 4, !tbaa !9
  %62 = call i32 @test_int_eq(ptr noundef @.str.20, i32 noundef 133, ptr noundef @.str.36, ptr noundef @.str.37, i32 noundef %60, i32 noundef %61)
  store i32 %62, ptr %1, align 4
  store i32 1, ptr %7, align 4
  br label %63

63:                                               ; preds = %56, %12
  call void @llvm.lifetime.end.p0(i64 4, ptr %6) #6
  call void @llvm.lifetime.end.p0(i64 4, ptr %5) #6
  call void @llvm.lifetime.end.p0(i64 8, ptr %4) #6
  call void @llvm.lifetime.end.p0(i64 8, ptr %3) #6
  call void @llvm.lifetime.end.p0(i64 8, ptr %2) #6
  %64 = load i32, ptr %1, align 4
  ret i32 %64
}