; Function Attrs: nounwind uwtable
define internal i32 @test_PEM_X509_INFO_read_bio() #1 {
  %1 = load ptr, ptr @file, align 8, !tbaa !4
  %2 = tail call ptr @BIO_new_file(ptr noundef %1, ptr noundef nonnull @.str.34) #5
  %3 = tail call i32 @test_ptr(ptr noundef nonnull @.str.20, i32 noundef 119, ptr noundef nonnull @.str.33, ptr noundef %2) #5
  %.not = icmp eq i32 %3, 0
  br i1 %.not, label %23, label %4

4:                                                ; preds = %0
  %5 = tail call ptr @PEM_X509_INFO_read_bio(ptr noundef %2, ptr noundef null, ptr noundef null, ptr noundef nonnull @.str.35) #5
  %6 = tail call i32 @BIO_free(ptr noundef %2) #5
  %7 = tail call i32 @OPENSSL_sk_num(ptr noundef %5) #5
  %8 = icmp sgt i32 %7, 0
  br i1 %8, label %.lr.ph, label %._crit_edge

.lr.ph:                                           ; preds = %4, %.lr.ph
  %.021 = phi i32 [ %.3, %.lr.ph ], [ 0, %4 ]
  %.01520 = phi i32 [ %18, %.lr.ph ], [ 0, %4 ]
  %9 = tail call ptr @OPENSSL_sk_value(ptr noundef %5, i32 noundef %.01520) #5
  %10 = load ptr, ptr %9, align 8, !tbaa !9
  %.not17 = icmp ne ptr %10, null
  %11 = zext i1 %.not17 to i32
  %spec.select = add nsw i32 %.021, %11
  %12 = getelementptr inbounds nuw i8, ptr %9, i64 8
  %13 = load ptr, ptr %12, align 8, !tbaa !17
  %.not18 = icmp ne ptr %13, null
  %14 = zext i1 %.not18 to i32
  %.2 = add nsw i32 %spec.select, %14
  %15 = getelementptr inbounds nuw i8, ptr %9, i64 16
  %16 = load ptr, ptr %15, align 8, !tbaa !18
  %.not19 = icmp ne ptr %16, null
  %17 = zext i1 %.not19 to i32
  %.3 = add nsw i32 %.2, %17
  %18 = add nuw nsw i32 %.01520, 1
  %19 = tail call i32 @OPENSSL_sk_num(ptr noundef %5) #5
  %20 = icmp slt i32 %18, %19
  br i1 %20, label %.lr.ph, label %._crit_edge, !llvm.loop !19

._crit_edge:                                      ; preds = %.lr.ph, %4
  %.0.lcssa = phi i32 [ 0, %4 ], [ %.3, %.lr.ph ]
  tail call void @OPENSSL_sk_pop_free(ptr noundef %5, ptr noundef nonnull @X509_INFO_free) #5
  %21 = load i32, ptr @expected, align 4, !tbaa !21
  %22 = tail call i32 @test_int_eq(ptr noundef nonnull @.str.20, i32 noundef 133, ptr noundef nonnull @.str.36, ptr noundef nonnull @.str.37, i32 noundef %.0.lcssa, i32 noundef %21) #5
  br label %23

23:                                               ; preds = %0, %._crit_edge
  %.016 = phi i32 [ %22, %._crit_edge ], [ 0, %0 ]
  ret i32 %.016
}